target datalayout = "e-m:e-p270:32:32-p271:32:32-p272:64:64-i64:64-i128:128-f80:128-n8:16:32:64-S128"
target triple = "x86_64-unknown-linux-gnu"

; Function Attrs: mustprogress nounwind uwtable
define noundef zeroext i1 @_ZN8facebook5velox6common9Tokenizer28isUnquotedSubscriptCharacterEc(ptr noundef nonnull align 8 dereferenceable(72) %this, i8 noundef signext %c) #2 align 2 {
entry:
  %this.addr = alloca ptr, align 8
  %c.addr = alloca i8, align 1
  store ptr %this, ptr %this.addr, align 8
  store i8 %c, ptr %c.addr, align 1
  %0 = load i8, ptr %c.addr, align 1
  %conv = sext i8 %0 to i32
  %cmp = icmp eq i32 %conv, 45
  br i1 %cmp, label %lor.end, label %lor.lhs.false

lor.lhs.false:                                    ; preds = %entry
  %1 = load i8, ptr %c.addr, align 1
  %conv2 = sext i8 %1 to i32
  %cmp3 = icmp eq i32 %conv2, 95
  br i1 %cmp3, label %lor.end, label %lor.rhs

lor.rhs:                                          ; preds = %lor.lhs.false
  %2 = load i8, ptr %c.addr, align 1
  %conv4 = sext i8 %2 to i32
  %call = call i32 @isalnum(i32 noundef %conv4) #17
  %tobool = icmp ne i32 %call, 0
  br label %lor.end

lor.end:                                          ; preds = %lor.rhs, %lor.lhs.false, %entry
  %3 = phi i1 [ true, %lor.lhs.false ], [ true, %entry ], [ %tobool, %lor.rhs ]
  ret i1 %3
}

; Function Attrs: mustprogress uwtable
define noundef zeroext i1 @_ZN8facebook5velox6common9Tokenizer23isUnquotedPathCharacterEc(ptr noundef nonnull align 8 dereferenceable(72) %this, i8 noundef signext %c) #0 align 2 {
entry:
  %this.addr = alloca ptr, align 8
  %c.addr = alloca i8, align 1
  store ptr %this, ptr %this.addr, align 8
  store i8 %c, ptr %c.addr, align 1
  %this1 = load ptr, ptr %this.addr, align 8
  %0 = load i8, ptr %c.addr, align 1
  %conv = sext i8 %0 to i32
  %cmp = icmp eq i32 %conv, 58
  br i1 %cmp, label %lor.end, label %lor.lhs.false

lor.lhs.false:                                    ; preds = %entry
  %1 = load i8, ptr %c.addr, align 1
  %conv2 = sext i8 %1 to i32
  %cmp3 = icmp eq i32 %conv2, 36
  br i1 %cmp3, label %lor.end, label %lor.lhs.false4

lor.lhs.false4:                                   ; preds = %lor.lhs.false
  %2 = load i8, ptr %c.addr, align 1
  %conv5 = sext i8 %2 to i32
  %cmp6 = icmp eq i32 %conv5, 45
  br i1 %cmp6, label %lor.end, label %lor.lhs.false7

lor.lhs.false7:                                   ; preds = %lor.lhs.false4
  %3 = load i8, ptr %c.addr, align 1
  %conv8 = sext i8 %3 to i32
  %cmp9 = icmp eq i32 %conv8, 47
  br i1 %cmp9, label %lor.end, label %lor.lhs.false10

lor.lhs.false10:                                  ; preds = %lor.lhs.false7
  %4 = load i8, ptr %c.addr, align 1
  %conv11 = sext i8 %4 to i32
  %cmp12 = icmp eq i32 %conv11, 64
  br i1 %cmp12, label %lor.end, label %lor.lhs.false13

lor.lhs.false13:                                  ; preds = %lor.lhs.false10
  %5 = load i8, ptr %c.addr, align 1
  %conv14 = sext i8 %5 to i32
  %cmp15 = icmp eq i32 %conv14, 124
  br i1 %cmp15, label %lor.end, label %lor.lhs.false16

lor.lhs.false16:                                  ; preds = %lor.lhs.false13
  %6 = load i8, ptr %c.addr, align 1
  %conv17 = sext i8 %6 to i32
  %cmp18 = icmp eq i32 %conv17, 35
  br i1 %cmp18, label %lor.end, label %lor.lhs.false19

lor.lhs.false19:                                  ; preds = %lor.lhs.false16
  %7 = load i8, ptr %c.addr, align 1
  %conv20 = sext i8 %7 to i32
  %cmp21 = icmp eq i32 %conv20, 46
  br i1 %cmp21, label %lor.end, label %lor.rhs

lor.rhs:                                          ; preds = %lor.lhs.false19
  %8 = load i8, ptr %c.addr, align 1
  %call = call noundef zeroext i1 @_ZN8facebook5velox6common9Tokenizer28isUnquotedSubscriptCharacterEc(ptr noundef nonnull align 8 dereferenceable(72) %this1, i8 noundef signext %8)
  br label %lor.end

lor.end:                                          ; preds = %lor.rhs, %lor.lhs.false19, %lor.lhs.false16, %lor.lhs.false13, %lor.lhs.false10, %lor.lhs.false7, %lor.lhs.false4, %lor.lhs.false, %entry
  %9 = phi i1 [ true, %lor.lhs.false19 ], [ true, %lor.lhs.false16 ], [ true, %lor.lhs.false13 ], [ true, %lor.lhs.false10 ], [ true, %lor.lhs.false7 ], [ true, %lor.lhs.false4 ], [ true, %lor.lhs.false ], [ true, %entry ], [ %call, %lor.rhs ]
  ret i1 %9
}