; Function Attrs: mustprogress nofree nounwind willreturn memory(read) uwtable
define noundef zeroext i1 @_ZN8facebook5velox6common9Tokenizer23isUnquotedPathCharacterEc(ptr nocapture nonnull readnone align 8 %this, i8 noundef signext %c) local_unnamed_addr #7 align 2 {
entry:
  switch i8 %c, label %lor.rhs.i [
    i8 124, label %lor.end
    i8 64, label %lor.end
    i8 58, label %lor.end
    i8 47, label %lor.end
    i8 46, label %lor.end
    i8 45, label %lor.end
    i8 36, label %lor.end
    i8 35, label %lor.end
    i8 95, label %lor.end
  ]

lor.rhs.i:                                        ; preds = %entry
  %conv.i = sext i8 %c to i32
  %call.i = tail call i32 @isalnum(i32 noundef %conv.i) #23
  %tobool.i = icmp ne i32 %call.i, 0
  br label %lor.end

lor.end:                                          ; preds = %entry, %entry, %entry, %entry, %entry, %entry, %entry, %entry, %entry, %lor.rhs.i
  %0 = phi i1 [ true, %entry ], [ true, %entry ], [ true, %entry ], [ true, %entry ], [ true, %entry ], [ true, %entry ], [ true, %entry ], [ true, %entry ], [ %tobool.i, %lor.rhs.i ], [ true, %entry ]
  ret i1 %0
}